target datalayout = "e-m:e-p270:32:32-p271:32:32-p272:64:64-i64:64-i128:128-f80:128-n8:16:32:64-S128"
target triple = "x86_64-pc-linux-gnu"

%struct.nk_color = type { i8, i8, i8, i8 }
%struct.nk_colorf = type { float, float, float, float }

; Function Attrs: nounwind uwtable
define i32 @nk_rgba_f(float noundef %0, float noundef %1, float noundef %2, float noundef %3) #0 {
  %5 = alloca %struct.nk_color, align 1
  %6 = alloca float, align 4
  %7 = alloca float, align 4
  %8 = alloca float, align 4
  %9 = alloca float, align 4
  store float %0, ptr %6, align 4, !tbaa !4
  store float %1, ptr %7, align 4, !tbaa !4
  store float %2, ptr %8, align 4, !tbaa !4
  store float %3, ptr %9, align 4, !tbaa !4
  %10 = load float, ptr %6, align 4, !tbaa !4
  %11 = fcmp olt float 1.000000e+00, %10
  br i1 %11, label %12, label %13

12:                                               ; preds = %4
  br label %15

13:                                               ; preds = %4
  %14 = load float, ptr %6, align 4, !tbaa !4
  br label %15

15:                                               ; preds = %13, %12
  %16 = phi float [ 1.000000e+00, %12 ], [ %14, %13 ]
  %17 = fcmp olt float 0.000000e+00, %16
  br i1 %17, label %18, label %26

18:                                               ; preds = %15
  %19 = load float, ptr %6, align 4, !tbaa !4
  %20 = fcmp olt float 1.000000e+00, %19
  br i1 %20, label %21, label %22

21:                                               ; preds = %18
  br label %24

22:                                               ; preds = %18
  %23 = load float, ptr %6, align 4, !tbaa !4
  br label %24

24:                                               ; preds = %22, %21
  %25 = phi float [ 1.000000e+00, %21 ], [ %23, %22 ]
  br label %27

26:                                               ; preds = %15
  br label %27

27:                                               ; preds = %26, %24
  %28 = phi float [ %25, %24 ], [ 0.000000e+00, %26 ]
  %29 = fmul float %28, 2.550000e+02
  %30 = fptoui float %29 to i8
  %31 = getelementptr inbounds nuw %struct.nk_color, ptr %5, i32 0, i32 0
  store i8 %30, ptr %31, align 1, !tbaa !49
  %32 = load float, ptr %7, align 4, !tbaa !4
  %33 = fcmp olt float 1.000000e+00, %32
  br i1 %33, label %34, label %35

34:                                               ; preds = %27
  br label %37

35:                                               ; preds = %27
  %36 = load float, ptr %7, align 4, !tbaa !4
  br label %37

37:                                               ; preds = %35, %34
  %38 = phi float [ 1.000000e+00, %34 ], [ %36, %35 ]
  %39 = fcmp olt float 0.000000e+00, %38
  br i1 %39, label %40, label %48

40:                                               ; preds = %37
  %41 = load float, ptr %7, align 4, !tbaa !4
  %42 = fcmp olt float 1.000000e+00, %41
  br i1 %42, label %43, label %44

43:                                               ; preds = %40
  br label %46

44:                                               ; preds = %40
  %45 = load float, ptr %7, align 4, !tbaa !4
  br label %46

46:                                               ; preds = %44, %43
  %47 = phi float [ 1.000000e+00, %43 ], [ %45, %44 ]
  br label %49

48:                                               ; preds = %37
  br label %49

49:                                               ; preds = %48, %46
  %50 = phi float [ %47, %46 ], [ 0.000000e+00, %48 ]
  %51 = fmul float %50, 2.550000e+02
  %52 = fptoui float %51 to i8
  %53 = getelementptr inbounds nuw %struct.nk_color, ptr %5, i32 0, i32 1
  store i8 %52, ptr %53, align 1, !tbaa !51
  %54 = load float, ptr %8, align 4, !tbaa !4
  %55 = fcmp olt float 1.000000e+00, %54
  br i1 %55, label %56, label %57

56:                                               ; preds = %49
  br label %59

57:                                               ; preds = %49
  %58 = load float, ptr %8, align 4, !tbaa !4
  br label %59

59:                                               ; preds = %57, %56
  %60 = phi float [ 1.000000e+00, %56 ], [ %58, %57 ]
  %61 = fcmp olt float 0.000000e+00, %60
  br i1 %61, label %62, label %70

62:                                               ; preds = %59
  %63 = load float, ptr %8, align 4, !tbaa !4
  %64 = fcmp olt float 1.000000e+00, %63
  br i1 %64, label %65, label %66

65:                                               ; preds = %62
  br label %68

66:                                               ; preds = %62
  %67 = load float, ptr %8, align 4, !tbaa !4
  br label %68

68:                                               ; preds = %66, %65
  %69 = phi float [ 1.000000e+00, %65 ], [ %67, %66 ]
  br label %71

70:                                               ; preds = %59
  br label %71

71:                                               ; preds = %70, %68
  %72 = phi float [ %69, %68 ], [ 0.000000e+00, %70 ]
  %73 = fmul float %72, 2.550000e+02
  %74 = fptoui float %73 to i8
  %75 = getelementptr inbounds nuw %struct.nk_color, ptr %5, i32 0, i32 2
  store i8 %74, ptr %75, align 1, !tbaa !52
  %76 = load float, ptr %9, align 4, !tbaa !4
  %77 = fcmp olt float 1.000000e+00, %76
  br i1 %77, label %78, label %79

78:                                               ; preds = %71
  br label %81

79:                                               ; preds = %71
  %80 = load float, ptr %9, align 4, !tbaa !4
  br label %81

81:                                               ; preds = %79, %78
  %82 = phi float [ 1.000000e+00, %78 ], [ %80, %79 ]
  %83 = fcmp olt float 0.000000e+00, %82
  br i1 %83, label %84, label %92

84:                                               ; preds = %81
  %85 = load float, ptr %9, align 4, !tbaa !4
  %86 = fcmp olt float 1.000000e+00, %85
  br i1 %86, label %87, label %88

87:                                               ; preds = %84
  br label %90

88:                                               ; preds = %84
  %89 = load float, ptr %9, align 4, !tbaa !4
  br label %90

90:                                               ; preds = %88, %87
  %91 = phi float [ 1.000000e+00, %87 ], [ %89, %88 ]
  br label %93

92:                                               ; preds = %81
  br label %93

93:                                               ; preds = %92, %90
  %94 = phi float [ %91, %90 ], [ 0.000000e+00, %92 ]
  %95 = fmul float %94, 2.550000e+02
  %96 = fptoui float %95 to i8
  %97 = getelementptr inbounds nuw %struct.nk_color, ptr %5, i32 0, i32 3
  store i8 %96, ptr %97, align 1, !tbaa !53
  %98 = load i32, ptr %5, align 1
  ret i32 %98
}

; Function Attrs: nounwind uwtable
define { <2 x float>, <2 x float> } @nk_hsva_colorf(float noundef %0, float noundef %1, float noundef %2, float noundef %3) #0 {
  %5 = alloca %struct.nk_colorf, align 4
  %6 = alloca float, align 4
  %7 = alloca float, align 4
  %8 = alloca float, align 4
  %9 = alloca float, align 4
  %10 = alloca i32, align 4
  %11 = alloca float, align 4
  %12 = alloca float, align 4
  %13 = alloca float, align 4
  %14 = alloca float, align 4
  %15 = alloca i32, align 4
  store float %0, ptr %6, align 4, !tbaa !4
  store float %1, ptr %7, align 4, !tbaa !4
  store float %2, ptr %8, align 4, !tbaa !4
  store float %3, ptr %9, align 4, !tbaa !4
  call void @llvm.lifetime.start.p0(i64 4, ptr %10) #10
  call void @llvm.lifetime.start.p0(i64 4, ptr %11) #10
  call void @llvm.lifetime.start.p0(i64 4, ptr %12) #10
  call void @llvm.lifetime.start.p0(i64 4, ptr %13) #10
  call void @llvm.lifetime.start.p0(i64 4, ptr %14) #10
  call void @llvm.memset.p0.i64(ptr align 4 %5, i8 0, i64 16, i1 false)
  %16 = load float, ptr %7, align 4, !tbaa !4
  %17 = fcmp ole float %16, 0.000000e+00
  br i1 %17, label %18, label %27

18:                                               ; preds = %4
  %19 = load float, ptr %8, align 4, !tbaa !4
  %20 = getelementptr inbounds nuw %struct.nk_colorf, ptr %5, i32 0, i32 0
  store float %19, ptr %20, align 4, !tbaa !55
  %21 = load float, ptr %8, align 4, !tbaa !4
  %22 = getelementptr inbounds nuw %struct.nk_colorf, ptr %5, i32 0, i32 1
  store float %21, ptr %22, align 4, !tbaa !57
  %23 = load float, ptr %8, align 4, !tbaa !4
  %24 = getelementptr inbounds nuw %struct.nk_colorf, ptr %5, i32 0, i32 2
  store float %23, ptr %24, align 4, !tbaa !58
  %25 = load float, ptr %9, align 4, !tbaa !4
  %26 = getelementptr inbounds nuw %struct.nk_colorf, ptr %5, i32 0, i32 3
  store float %25, ptr %26, align 4, !tbaa !59
  store i32 1, ptr %15, align 4
  br label %100

27:                                               ; preds = %4
  %28 = load float, ptr %6, align 4, !tbaa !4
  %29 = fdiv float %28, 0x3FC5555560000000
  store float %29, ptr %6, align 4, !tbaa !4
  %30 = load float, ptr %6, align 4, !tbaa !4
  %31 = fptosi float %30 to i32
  store i32 %31, ptr %10, align 4, !tbaa !13
  %32 = load float, ptr %6, align 4, !tbaa !4
  %33 = load i32, ptr %10, align 4, !tbaa !13
  %34 = sitofp i32 %33 to float
  %35 = fsub float %32, %34
  store float %35, ptr %14, align 4, !tbaa !4
  %36 = load float, ptr %8, align 4, !tbaa !4
  %37 = load float, ptr %7, align 4, !tbaa !4
  %38 = fsub float 1.000000e+00, %37
  %39 = fmul float %36, %38
  store float %39, ptr %11, align 4, !tbaa !4
  %40 = load float, ptr %8, align 4, !tbaa !4
  %41 = load float, ptr %7, align 4, !tbaa !4
  %42 = load float, ptr %14, align 4, !tbaa !4
  %43 = fneg float %41
  %44 = call float @llvm.fmuladd.f32(float %43, float %42, float 1.000000e+00)
  %45 = fmul float %40, %44
  store float %45, ptr %12, align 4, !tbaa !4
  %46 = load float, ptr %8, align 4, !tbaa !4
  %47 = load float, ptr %7, align 4, !tbaa !4
  %48 = load float, ptr %14, align 4, !tbaa !4
  %49 = fsub float 1.000000e+00, %48
  %50 = fneg float %47
  %51 = call float @llvm.fmuladd.f32(float %50, float %49, float 1.000000e+00)
  %52 = fmul float %46, %51
  store float %52, ptr %13, align 4, !tbaa !4
  %53 = load i32, ptr %10, align 4, !tbaa !13
  switch i32 %53, label %55 [
    i32 0, label %54
    i32 1, label %62
    i32 2, label %69
    i32 3, label %76
    i32 4, label %83
    i32 5, label %90
  ]

54:                                               ; preds = %27
  br label %55

55:                                               ; preds = %27, %54
  %56 = load float, ptr %8, align 4, !tbaa !4
  %57 = getelementptr inbounds nuw %struct.nk_colorf, ptr %5, i32 0, i32 0
  store float %56, ptr %57, align 4, !tbaa !55
  %58 = load float, ptr %13, align 4, !tbaa !4
  %59 = getelementptr inbounds nuw %struct.nk_colorf, ptr %5, i32 0, i32 1
  store float %58, ptr %59, align 4, !tbaa !57
  %60 = load float, ptr %11, align 4, !tbaa !4
  %61 = getelementptr inbounds nuw %struct.nk_colorf, ptr %5, i32 0, i32 2
  store float %60, ptr %61, align 4, !tbaa !58
  br label %97

62:                                               ; preds = %27
  %63 = load float, ptr %12, align 4, !tbaa !4
  %64 = getelementptr inbounds nuw %struct.nk_colorf, ptr %5, i32 0, i32 0
  store float %63, ptr %64, align 4, !tbaa !55
  %65 = load float, ptr %8, align 4, !tbaa !4
  %66 = getelementptr inbounds nuw %struct.nk_colorf, ptr %5, i32 0, i32 1
  store float %65, ptr %66, align 4, !tbaa !57
  %67 = load float, ptr %11, align 4, !tbaa !4
  %68 = getelementptr inbounds nuw %struct.nk_colorf, ptr %5, i32 0, i32 2
  store float %67, ptr %68, align 4, !tbaa !58
  br label %97

69:                                               ; preds = %27
  %70 = load float, ptr %11, align 4, !tbaa !4
  %71 = getelementptr inbounds nuw %struct.nk_colorf, ptr %5, i32 0, i32 0
  store float %70, ptr %71, align 4, !tbaa !55
  %72 = load float, ptr %8, align 4, !tbaa !4
  %73 = getelementptr inbounds nuw %struct.nk_colorf, ptr %5, i32 0, i32 1
  store float %72, ptr %73, align 4, !tbaa !57
  %74 = load float, ptr %13, align 4, !tbaa !4
  %75 = getelementptr inbounds nuw %struct.nk_colorf, ptr %5, i32 0, i32 2
  store float %74, ptr %75, align 4, !tbaa !58
  br label %97

76:                                               ; preds = %27
  %77 = load float, ptr %11, align 4, !tbaa !4
  %78 = getelementptr inbounds nuw %struct.nk_colorf, ptr %5, i32 0, i32 0
  store float %77, ptr %78, align 4, !tbaa !55
  %79 = load float, ptr %12, align 4, !tbaa !4
  %80 = getelementptr inbounds nuw %struct.nk_colorf, ptr %5, i32 0, i32 1
  store float %79, ptr %80, align 4, !tbaa !57
  %81 = load float, ptr %8, align 4, !tbaa !4
  %82 = getelementptr inbounds nuw %struct.nk_colorf, ptr %5, i32 0, i32 2
  store float %81, ptr %82, align 4, !tbaa !58
  br label %97

83:                                               ; preds = %27
  %84 = load float, ptr %13, align 4, !tbaa !4
  %85 = getelementptr inbounds nuw %struct.nk_colorf, ptr %5, i32 0, i32 0
  store float %84, ptr %85, align 4, !tbaa !55
  %86 = load float, ptr %11, align 4, !tbaa !4
  %87 = getelementptr inbounds nuw %struct.nk_colorf, ptr %5, i32 0, i32 1
  store float %86, ptr %87, align 4, !tbaa !57
  %88 = load float, ptr %8, align 4, !tbaa !4
  %89 = getelementptr inbounds nuw %struct.nk_colorf, ptr %5, i32 0, i32 2
  store float %88, ptr %89, align 4, !tbaa !58
  br label %97

90:                                               ; preds = %27
  %91 = load float, ptr %8, align 4, !tbaa !4
  %92 = getelementptr inbounds nuw %struct.nk_colorf, ptr %5, i32 0, i32 0
  store float %91, ptr %92, align 4, !tbaa !55
  %93 = load float, ptr %11, align 4, !tbaa !4
  %94 = getelementptr inbounds nuw %struct.nk_colorf, ptr %5, i32 0, i32 1
  store float %93, ptr %94, align 4, !tbaa !57
  %95 = load float, ptr %12, align 4, !tbaa !4
  %96 = getelementptr inbounds nuw %struct.nk_colorf, ptr %5, i32 0, i32 2
  store float %95, ptr %96, align 4, !tbaa !58
  br label %97

97:                                               ; preds = %90, %83, %76, %69, %62, %55
  %98 = load float, ptr %9, align 4, !tbaa !4
  %99 = getelementptr inbounds nuw %struct.nk_colorf, ptr %5, i32 0, i32 3
  store float %98, ptr %99, align 4, !tbaa !59
  store i32 1, ptr %15, align 4
  br label %100

100:                                              ; preds = %97, %18
  call void @llvm.lifetime.end.p0(i64 4, ptr %14) #10
  call void @llvm.lifetime.end.p0(i64 4, ptr %13) #10
  call void @llvm.lifetime.end.p0(i64 4, ptr %12) #10
  call void @llvm.lifetime.end.p0(i64 4, ptr %11) #10
  call void @llvm.lifetime.end.p0(i64 4, ptr %10) #10
  %101 = load { <2 x float>, <2 x float> }, ptr %5, align 4
  ret { <2 x float>, <2 x float> } %101
}

; Function Attrs: nounwind uwtable
define i32 @nk_hsva_f(float noundef %0, float noundef %1, float noundef %2, float noundef %3) #2 {
  %5 = alloca %struct.nk_color, align 1
  %6 = alloca float, align 4
  %7 = alloca float, align 4
  %8 = alloca float, align 4
  %9 = alloca float, align 4
  %10 = alloca %struct.nk_colorf, align 4
  store float %0, ptr %6, align 4, !tbaa !4
  store float %1, ptr %7, align 4, !tbaa !4
  store float %2, ptr %8, align 4, !tbaa !4
  store float %3, ptr %9, align 4, !tbaa !4
  call void @llvm.lifetime.start.p0(i64 16, ptr %10) #10
  %11 = load float, ptr %6, align 4, !tbaa !4
  %12 = load float, ptr %7, align 4, !tbaa !4
  %13 = load float, ptr %8, align 4, !tbaa !4
  %14 = load float, ptr %9, align 4, !tbaa !4
  %15 = call { <2 x float>, <2 x float> } @nk_hsva_colorf(float noundef %11, float noundef %12, float noundef %13, float noundef %14)
  %16 = getelementptr inbounds nuw { <2 x float>, <2 x float> }, ptr %10, i32 0, i32 0
  %17 = extractvalue { <2 x float>, <2 x float> } %15, 0
  store <2 x float> %17, ptr %16, align 4
  %18 = getelementptr inbounds nuw { <2 x float>, <2 x float> }, ptr %10, i32 0, i32 1
  %19 = extractvalue { <2 x float>, <2 x float> } %15, 1
  store <2 x float> %19, ptr %18, align 4
  %20 = getelementptr inbounds nuw %struct.nk_colorf, ptr %10, i32 0, i32 0
  %21 = load float, ptr %20, align 4, !tbaa !55
  %22 = getelementptr inbounds nuw %struct.nk_colorf, ptr %10, i32 0, i32 1
  %23 = load float, ptr %22, align 4, !tbaa !57
  %24 = getelementptr inbounds nuw %struct.nk_colorf, ptr %10, i32 0, i32 2
  %25 = load float, ptr %24, align 4, !tbaa !58
  %26 = getelementptr inbounds nuw %struct.nk_colorf, ptr %10, i32 0, i32 3
  %27 = load float, ptr %26, align 4, !tbaa !59
  %28 = call i32 @nk_rgba_f(float noundef %21, float noundef %23, float noundef %25, float noundef %27)
  store i32 %28, ptr %5, align 1
  call void @llvm.lifetime.end.p0(i64 16, ptr %10) #10
  %29 = load i32, ptr %5, align 1
  ret i32 %29
}

; Function Attrs: nounwind uwtable
define i32 @nk_hsv_f(float noundef %0, float noundef %1, float noundef %2) #0 {
  %4 = alloca %struct.nk_color, align 1
  %5 = alloca float, align 4
  %6 = alloca float, align 4
  %7 = alloca float, align 4
  store float %0, ptr %5, align 4, !tbaa !4
  store float %1, ptr %6, align 4, !tbaa !4
  store float %2, ptr %7, align 4, !tbaa !4
  %8 = load float, ptr %5, align 4, !tbaa !4
  %9 = load float, ptr %6, align 4, !tbaa !4
  %10 = load float, ptr %7, align 4, !tbaa !4
  %11 = call i32 @nk_hsva_f(float noundef %8, float noundef %9, float noundef %10, float noundef 1.000000e+00)
  store i32 %11, ptr %4, align 1
  %12 = load i32, ptr %4, align 1
  ret i32 %12
}