; Function Attrs: mustprogress nofree norecurse nosync nounwind willreturn memory(none) uwtable
define range(i32 -16777216, 0) i32 @nk_hsv_f(float noundef %0, float noundef %1, float noundef %2) local_unnamed_addr #2 {
  %4 = fcmp ugt float %1, 0.000000e+00
  br i1 %4, label %6, label %5

5:                                                ; preds = %3
  %.sroa.0.0.vec.insert.i.i = insertelement <2 x float> <float poison, float 0.000000e+00>, float %2, i64 0
  %.sroa.0.4.vec.insert.i.i = shufflevector <2 x float> %.sroa.0.0.vec.insert.i.i, <2 x float> poison, <2 x i32> zeroinitializer
  br label %nk_hsva_f.exit

6:                                                ; preds = %3
  %7 = fdiv float %0, 0x3FC5555560000000
  %8 = fptosi float %7 to i32
  %9 = sitofp i32 %8 to float
  %10 = fsub float %7, %9
  %11 = fsub float 1.000000e+00, %1
  %12 = fmul float %2, %11
  %13 = fneg float %1
  %14 = tail call float @llvm.fmuladd.f32(float %13, float %10, float 1.000000e+00)
  %15 = fmul float %2, %14
  %16 = fsub float 1.000000e+00, %10
  %17 = tail call float @llvm.fmuladd.f32(float %13, float %16, float 1.000000e+00)
  %18 = fmul float %2, %17
  switch i32 %8, label %24 [
    i32 5, label %23
    i32 1, label %19
    i32 2, label %20
    i32 3, label %21
    i32 4, label %22
  ]

19:                                               ; preds = %6
  br label %24

20:                                               ; preds = %6
  br label %24

21:                                               ; preds = %6
  br label %24

22:                                               ; preds = %6
  br label %24

23:                                               ; preds = %6
  br label %24

24:                                               ; preds = %23, %22, %21, %20, %19, %6
  %.sink77.i.i = phi float [ %2, %23 ], [ %18, %22 ], [ %12, %21 ], [ %12, %20 ], [ %15, %19 ], [ %2, %6 ]
  %.sink76.i.i = phi float [ %12, %23 ], [ %12, %22 ], [ %15, %21 ], [ %2, %20 ], [ %2, %19 ], [ %18, %6 ]
  %.sink.i.i = phi float [ %15, %23 ], [ %2, %22 ], [ %2, %21 ], [ %18, %20 ], [ %12, %19 ], [ %12, %6 ]
  %.sroa.0.0.vec.insert48.i.i = insertelement <2 x float> poison, float %.sink77.i.i, i64 0
  %.sroa.0.4.vec.insert60.i.i = insertelement <2 x float> %.sroa.0.0.vec.insert48.i.i, float %.sink76.i.i, i64 1
  %.sroa.16.8.vec.insert73.i.i = insertelement <2 x float> <float poison, float 0.000000e+00>, float %.sink.i.i, i64 0
  br label %nk_hsva_f.exit

nk_hsva_f.exit:                                   ; preds = %5, %24
  %.sroa.16.8.vec.insert73.sink.i.i = phi <2 x float> [ %.sroa.16.8.vec.insert73.i.i, %24 ], [ %.sroa.0.0.vec.insert.i.i, %5 ]
  %.sroa.0.0.i.i = phi <2 x float> [ %.sroa.0.4.vec.insert60.i.i, %24 ], [ %.sroa.0.4.vec.insert.i.i, %5 ]
  %.sroa.0.0.vec.extract.i = extractelement <2 x float> %.sroa.0.0.i.i, i64 0
  %.sroa.0.4.vec.extract.i = extractelement <2 x float> %.sroa.0.0.i.i, i64 1
  %.sroa.5.8.vec.extract.i = extractelement <2 x float> %.sroa.16.8.vec.insert73.sink.i.i, i64 0
  %25 = fcmp ogt float %.sroa.0.0.vec.extract.i, 1.000000e+00
  %26 = select i1 %25, float 1.000000e+00, float %.sroa.0.0.vec.extract.i
  %27 = fcmp ogt float %26, 0.000000e+00
  %28 = fmul float %26, 2.550000e+02
  %29 = fptoui float %28 to i8
  %30 = zext i8 %29 to i32
  %31 = fcmp ogt float %.sroa.0.4.vec.extract.i, 1.000000e+00
  %32 = select i1 %31, float 1.000000e+00, float %.sroa.0.4.vec.extract.i
  %33 = fcmp ogt float %32, 0.000000e+00
  %34 = fmul float %32, 2.550000e+02
  %35 = fptoui float %34 to i8
  %36 = zext i8 %35 to i32
  %37 = shl nuw nsw i32 %36, 8
  %.sroa.2.0.insert.ext.i.i = select i1 %33, i32 %37, i32 0
  %38 = fcmp ogt float %.sroa.5.8.vec.extract.i, 1.000000e+00
  %39 = select i1 %38, float 1.000000e+00, float %.sroa.5.8.vec.extract.i
  %40 = fcmp ogt float %39, 0.000000e+00
  %41 = fmul float %39, 2.550000e+02
  %42 = fptoui float %41 to i8
  %43 = zext i8 %42 to i32
  %44 = shl nuw nsw i32 %43, 16
  %.sroa.3.0.insert.ext.i.i = select i1 %40, i32 %44, i32 0
  %45 = or disjoint i32 %30, -16777216
  %.sroa.3.0.insert.insert.i.i = select i1 %27, i32 %45, i32 -16777216
  %.sroa.2.0.insert.insert.i.i = or disjoint i32 %.sroa.3.0.insert.insert.i.i, %.sroa.3.0.insert.ext.i.i
  %.sroa.0.0.insert.insert.i.i = or disjoint i32 %.sroa.2.0.insert.insert.i.i, %.sroa.2.0.insert.ext.i.i
  ret i32 %.sroa.0.0.insert.insert.i.i
}